target datalayout = "e-m:e-p270:32:32-p271:32:32-p272:64:64-i64:64-i128:128-f80:128-n8:16:32:64-S128"
target triple = "x86_64-pc-linux-gnu"

%struct.BuildCtx = type { ptr, i32, ptr, ptr, ptr, ptr, i64, i32, i32, i32, i32, i32, ptr, ptr, ptr, ptr, ptr, ptr, ptr, ptr, ptr, [200 x %struct.BuildReloc] }
%struct.BuildReloc = type { i32, i32, i32 }
%union.anon = type { i32 }

@stderr = external global ptr, align 8
@.str.9 = private unnamed_addr constant [7 x i8] c"LJLIB_\00", align 1
@obuf = internal global [8192 x i8] zeroinitializer, align 16
@optr = internal global ptr null, align 8
@modnamelen = internal global i64 0, align 8
@modname = internal global [80 x i8] zeroinitializer, align 16
@.str.40 = private unnamed_addr constant [31 x i8] c"Error: output buffer overflow\0A\00", align 1
@.str.50 = private unnamed_addr constant [30 x i8] c"Error: string too long: '%s'\0A\00", align 1
@.str.66 = private unnamed_addr constant [7 x i8] c"lastcl\00", align 1
@.str.67 = private unnamed_addr constant [5 x i8] c"top-\00", align 1
@.str.68 = private unnamed_addr constant [33 x i8] c"Error: bad value for %sPUSH(%s)\0A\00", align 1

; Function Attrs: inlinehint nounwind willreturn memory(read) uwtable
define available_externally i32 @atoi(ptr noundef nonnull %0) #8 {
  %2 = alloca ptr, align 8
  store ptr %0, ptr %2, align 8, !tbaa !22
  %3 = load ptr, ptr %2, align 8, !tbaa !22
  %4 = call i64 @strtol(ptr noundef %3, ptr noundef null, i32 noundef 10) #9
  %5 = trunc i64 %4 to i32
  ret i32 %5
}

; Function Attrs: nounwind uwtable
define internal void @memcpy_endian(ptr noundef %0, ptr noundef %1, i64 noundef %2) #0 {
  %4 = alloca ptr, align 8
  %5 = alloca ptr, align 8
  %6 = alloca i64, align 8
  %7 = alloca %union.anon, align 4
  %8 = alloca i64, align 8
  store ptr %0, ptr %4, align 8, !tbaa !53
  store ptr %1, ptr %5, align 8, !tbaa !53
  store i64 %2, ptr %6, align 8, !tbaa !25
  call void @llvm.lifetime.start.p0(i64 4, ptr %7) #9
  store i32 1, ptr %7, align 4, !tbaa !23
  %9 = load i8, ptr %7, align 4, !tbaa !23
  %10 = zext i8 %9 to i32
  %11 = icmp eq i32 %10, 1
  br i1 %11, label %12, label %16

12:                                               ; preds = %3
  %13 = load ptr, ptr %4, align 8, !tbaa !53
  %14 = load ptr, ptr %5, align 8, !tbaa !53
  %15 = load i64, ptr %6, align 8, !tbaa !25
  call void @llvm.memcpy.p0.p0.i64(ptr align 1 %13, ptr align 1 %14, i64 %15, i1 false)
  br label %36

16:                                               ; preds = %3
  call void @llvm.lifetime.start.p0(i64 8, ptr %8) #9
  store i64 0, ptr %8, align 8, !tbaa !25
  br label %17

17:                                               ; preds = %32, %16
  %18 = load i64, ptr %8, align 8, !tbaa !25
  %19 = load i64, ptr %6, align 8, !tbaa !25
  %20 = icmp ult i64 %18, %19
  br i1 %20, label %21, label %35

21:                                               ; preds = %17
  %22 = load ptr, ptr %5, align 8, !tbaa !53
  %23 = load i64, ptr %6, align 8, !tbaa !25
  %24 = load i64, ptr %8, align 8, !tbaa !25
  %25 = sub i64 %23, %24
  %26 = sub i64 %25, 1
  %27 = getelementptr inbounds nuw i8, ptr %22, i64 %26
  %28 = load i8, ptr %27, align 1, !tbaa !23
  %29 = load ptr, ptr %4, align 8, !tbaa !53
  %30 = load i64, ptr %8, align 8, !tbaa !25
  %31 = getelementptr inbounds nuw i8, ptr %29, i64 %30
  store i8 %28, ptr %31, align 1, !tbaa !23
  br label %32

32:                                               ; preds = %21
  %33 = load i64, ptr %8, align 8, !tbaa !25
  %34 = add i64 %33, 1
  store i64 %34, ptr %8, align 8, !tbaa !25
  br label %17, !llvm.loop !60

35:                                               ; preds = %17
  call void @llvm.lifetime.end.p0(i64 8, ptr %8) #9
  br label %36

36:                                               ; preds = %35, %12
  call void @llvm.lifetime.end.p0(i64 4, ptr %7) #9
  ret void
}

; Function Attrs: nounwind uwtable
define internal void @libdef_name(ptr noundef %0, i32 noundef %1) #0 {
  %3 = alloca ptr, align 8
  %4 = alloca i32, align 4
  %5 = alloca i64, align 8
  store ptr %0, ptr %3, align 8, !tbaa !22
  store i32 %1, ptr %4, align 4, !tbaa !20
  call void @llvm.lifetime.start.p0(i64 8, ptr %5) #9
  %6 = load ptr, ptr %3, align 8, !tbaa !22
  %7 = call i64 @strlen(ptr noundef %6) #12
  store i64 %7, ptr %5, align 8, !tbaa !25
  %8 = load i32, ptr %4, align 4, !tbaa !20
  %9 = icmp ne i32 %8, 192
  br i1 %9, label %10, label %36

10:                                               ; preds = %2
  %11 = load i64, ptr %5, align 8, !tbaa !25
  %12 = load i64, ptr @modnamelen, align 8, !tbaa !25
  %13 = icmp ugt i64 %11, %12
  br i1 %13, label %14, label %35

14:                                               ; preds = %10
  %15 = load ptr, ptr %3, align 8, !tbaa !22
  %16 = load i64, ptr @modnamelen, align 8, !tbaa !25
  %17 = getelementptr inbounds nuw i8, ptr %15, i64 %16
  %18 = load i8, ptr %17, align 1, !tbaa !23
  %19 = sext i8 %18 to i32
  %20 = icmp eq i32 %19, 95
  br i1 %20, label %21, label %35

21:                                               ; preds = %14
  %22 = load ptr, ptr %3, align 8, !tbaa !22
  %23 = load i64, ptr @modnamelen, align 8, !tbaa !25
  %24 = call i32 @strncmp(ptr noundef %22, ptr noundef @modname, i64 noundef %23) #12
  %25 = icmp ne i32 %24, 0
  br i1 %25, label %35, label %26

26:                                               ; preds = %21
  %27 = load i64, ptr @modnamelen, align 8, !tbaa !25
  %28 = add i64 %27, 1
  %29 = load ptr, ptr %3, align 8, !tbaa !22
  %30 = getelementptr inbounds nuw i8, ptr %29, i64 %28
  store ptr %30, ptr %3, align 8, !tbaa !22
  %31 = load i64, ptr @modnamelen, align 8, !tbaa !25
  %32 = add i64 %31, 1
  %33 = load i64, ptr %5, align 8, !tbaa !25
  %34 = sub i64 %33, %32
  store i64 %34, ptr %5, align 8, !tbaa !25
  br label %35

35:                                               ; preds = %26, %21, %14, %10
  br label %36

36:                                               ; preds = %35, %2
  %37 = load i64, ptr %5, align 8, !tbaa !25
  %38 = icmp ugt i64 %37, 56
  br i1 %38, label %39, label %43

39:                                               ; preds = %36
  %40 = load ptr, ptr @stderr, align 8, !tbaa !24
  %41 = load ptr, ptr %3, align 8, !tbaa !22
  %42 = call i32 (ptr, ptr, ...) @fprintf(ptr noundef %40, ptr noundef @.str.50, ptr noundef %41) #9
  call void @exit(i32 noundef 1) #11
  unreachable

43:                                               ; preds = %36
  %44 = load ptr, ptr @optr, align 8, !tbaa !22
  %45 = getelementptr inbounds i8, ptr %44, i64 1
  %46 = load i64, ptr %5, align 8, !tbaa !25
  %47 = getelementptr inbounds nuw i8, ptr %45, i64 %46
  %48 = getelementptr inbounds i8, ptr %47, i64 2
  %49 = icmp ugt ptr %48, getelementptr inbounds nuw (i8, ptr @obuf, i64 8192)
  br i1 %49, label %50, label %53

50:                                               ; preds = %43
  %51 = load ptr, ptr @stderr, align 8, !tbaa !24
  %52 = call i32 (ptr, ptr, ...) @fprintf(ptr noundef %51, ptr noundef @.str.40) #9
  call void @exit(i32 noundef 1) #11
  unreachable

53:                                               ; preds = %43
  %54 = load i64, ptr %5, align 8, !tbaa !25
  %55 = load i32, ptr %4, align 4, !tbaa !20
  %56 = sext i32 %55 to i64
  %57 = or i64 %54, %56
  %58 = trunc i64 %57 to i8
  %59 = load ptr, ptr @optr, align 8, !tbaa !22
  %60 = getelementptr inbounds nuw i8, ptr %59, i32 1
  store ptr %60, ptr @optr, align 8, !tbaa !22
  store i8 %58, ptr %59, align 1, !tbaa !23
  %61 = load ptr, ptr @optr, align 8, !tbaa !22
  %62 = load ptr, ptr %3, align 8, !tbaa !22
  %63 = load i64, ptr %5, align 8, !tbaa !25
  call void @llvm.memcpy.p0.p0.i64(ptr align 1 %61, ptr align 1 %62, i64 %63, i1 false)
  %64 = load i64, ptr %5, align 8, !tbaa !25
  %65 = load ptr, ptr @optr, align 8, !tbaa !22
  %66 = getelementptr inbounds nuw i8, ptr %65, i64 %64
  store ptr %66, ptr @optr, align 8, !tbaa !22
  call void @llvm.lifetime.end.p0(i64 8, ptr %5) #9
  ret void
}

; Function Attrs: nounwind uwtable
define internal void @libdef_push(ptr noundef %0, ptr noundef %1, i32 noundef %2) #0 {
  %4 = alloca ptr, align 8
  %5 = alloca ptr, align 8
  %6 = alloca i32, align 4
  %7 = alloca i32, align 4
  %8 = alloca i32, align 4
  %9 = alloca ptr, align 8
  %10 = alloca double, align 8
  store ptr %0, ptr %4, align 8, !tbaa !4
  store ptr %1, ptr %5, align 8, !tbaa !22
  store i32 %2, ptr %6, align 4, !tbaa !20
  %11 = load ptr, ptr %4, align 8, !tbaa !4
  %12 = getelementptr inbounds nuw %struct.BuildCtx, ptr %11, i32 0, i32 1
  %13 = load i32, ptr %12, align 8, !tbaa !9
  %14 = icmp eq i32 %13, 7
  br i1 %14, label %15, label %124

15:                                               ; preds = %3
  call void @llvm.lifetime.start.p0(i64 4, ptr %7) #9
  %16 = load ptr, ptr %5, align 8, !tbaa !22
  %17 = call i64 @strlen(ptr noundef %16) #12
  %18 = trunc i64 %17 to i32
  store i32 %18, ptr %7, align 4, !tbaa !20
  %19 = load ptr, ptr %5, align 8, !tbaa !22
  %20 = load i8, ptr %19, align 1, !tbaa !23
  %21 = sext i8 %20 to i32
  %22 = icmp eq i32 %21, 34
  br i1 %22, label %23, label %44

23:                                               ; preds = %15
  %24 = load i32, ptr %7, align 4, !tbaa !20
  %25 = icmp sgt i32 %24, 1
  br i1 %25, label %26, label %43

26:                                               ; preds = %23
  %27 = load ptr, ptr %5, align 8, !tbaa !22
  %28 = load i32, ptr %7, align 4, !tbaa !20
  %29 = sub nsw i32 %28, 1
  %30 = sext i32 %29 to i64
  %31 = getelementptr inbounds i8, ptr %27, i64 %30
  %32 = load i8, ptr %31, align 1, !tbaa !23
  %33 = sext i8 %32 to i32
  %34 = icmp eq i32 %33, 34
  br i1 %34, label %35, label %43

35:                                               ; preds = %26
  %36 = load ptr, ptr %5, align 8, !tbaa !22
  %37 = load i32, ptr %7, align 4, !tbaa !20
  %38 = sub nsw i32 %37, 1
  %39 = sext i32 %38 to i64
  %40 = getelementptr inbounds i8, ptr %36, i64 %39
  store i8 0, ptr %40, align 1, !tbaa !23
  %41 = load ptr, ptr %5, align 8, !tbaa !22
  %42 = getelementptr inbounds i8, ptr %41, i64 1
  call void @libdef_name(ptr noundef %42, i32 noundef 192)
  store i32 1, ptr %8, align 4
  br label %123

43:                                               ; preds = %26, %23
  br label %119

44:                                               ; preds = %15
  %45 = load ptr, ptr %5, align 8, !tbaa !22
  %46 = load i8, ptr %45, align 1, !tbaa !23
  %47 = sext i8 %46 to i32
  %48 = icmp sge i32 %47, 48
  br i1 %48, label %49, label %79

49:                                               ; preds = %44
  %50 = load ptr, ptr %5, align 8, !tbaa !22
  %51 = load i8, ptr %50, align 1, !tbaa !23
  %52 = sext i8 %51 to i32
  %53 = icmp sle i32 %52, 57
  br i1 %53, label %54, label %79

54:                                               ; preds = %49
  call void @llvm.lifetime.start.p0(i64 8, ptr %9) #9
  call void @llvm.lifetime.start.p0(i64 8, ptr %10) #9
  %55 = load ptr, ptr %5, align 8, !tbaa !22
  %56 = call double @strtod(ptr noundef %55, ptr noundef %9) #9
  store double %56, ptr %10, align 8, !tbaa !48
  %57 = load ptr, ptr %9, align 8, !tbaa !22
  %58 = load i8, ptr %57, align 1, !tbaa !23
  %59 = sext i8 %58 to i32
  %60 = icmp eq i32 %59, 0
  br i1 %60, label %61, label %75

61:                                               ; preds = %54
  %62 = load ptr, ptr @optr, align 8, !tbaa !22
  %63 = getelementptr inbounds i8, ptr %62, i64 1
  %64 = getelementptr inbounds nuw i8, ptr %63, i64 8
  %65 = icmp ugt ptr %64, getelementptr inbounds nuw (i8, ptr @obuf, i64 8192)
  br i1 %65, label %66, label %69

66:                                               ; preds = %61
  %67 = load ptr, ptr @stderr, align 8, !tbaa !24
  %68 = call i32 (ptr, ptr, ...) @fprintf(ptr noundef %67, ptr noundef @.str.40) #9
  call void @exit(i32 noundef 1) #11
  unreachable

69:                                               ; preds = %61
  %70 = load ptr, ptr @optr, align 8, !tbaa !22
  %71 = getelementptr inbounds nuw i8, ptr %70, i32 1
  store ptr %71, ptr @optr, align 8, !tbaa !22
  store i8 -5, ptr %70, align 1, !tbaa !23
  %72 = load ptr, ptr @optr, align 8, !tbaa !22
  call void @memcpy_endian(ptr noundef %72, ptr noundef %10, i64 noundef 8)
  %73 = load ptr, ptr @optr, align 8, !tbaa !22
  %74 = getelementptr inbounds nuw i8, ptr %73, i64 8
  store ptr %74, ptr @optr, align 8, !tbaa !22
  store i32 1, ptr %8, align 4
  br label %76

75:                                               ; preds = %54
  store i32 0, ptr %8, align 4
  br label %76

76:                                               ; preds = %75, %69
  call void @llvm.lifetime.end.p0(i64 8, ptr %10) #9
  call void @llvm.lifetime.end.p0(i64 8, ptr %9) #9
  %77 = load i32, ptr %8, align 4
  switch i32 %77, label %123 [
    i32 0, label %78
  ]

78:                                               ; preds = %76
  br label %118

79:                                               ; preds = %49, %44
  %80 = load ptr, ptr %5, align 8, !tbaa !22
  %81 = call i32 @strcmp(ptr noundef %80, ptr noundef @.str.66) #12
  %82 = icmp ne i32 %81, 0
  br i1 %82, label %93, label %83

83:                                               ; preds = %79
  %84 = load ptr, ptr @optr, align 8, !tbaa !22
  %85 = getelementptr inbounds i8, ptr %84, i64 1
  %86 = icmp ugt ptr %85, getelementptr inbounds nuw (i8, ptr @obuf, i64 8192)
  br i1 %86, label %87, label %90

87:                                               ; preds = %83
  %88 = load ptr, ptr @stderr, align 8, !tbaa !24
  %89 = call i32 (ptr, ptr, ...) @fprintf(ptr noundef %88, ptr noundef @.str.40) #9
  call void @exit(i32 noundef 1) #11
  unreachable

90:                                               ; preds = %83
  %91 = load ptr, ptr @optr, align 8, !tbaa !22
  %92 = getelementptr inbounds nuw i8, ptr %91, i32 1
  store ptr %92, ptr @optr, align 8, !tbaa !22
  store i8 -3, ptr %91, align 1, !tbaa !23
  store i32 1, ptr %8, align 4
  br label %123

93:                                               ; preds = %79
  %94 = load i32, ptr %7, align 4, !tbaa !20
  %95 = icmp sgt i32 %94, 4
  br i1 %95, label %96, label %116

96:                                               ; preds = %93
  %97 = load ptr, ptr %5, align 8, !tbaa !22
  %98 = call i32 @strncmp(ptr noundef %97, ptr noundef @.str.67, i64 noundef 4) #12
  %99 = icmp ne i32 %98, 0
  br i1 %99, label %116, label %100

100:                                              ; preds = %96
  %101 = load ptr, ptr @optr, align 8, !tbaa !22
  %102 = getelementptr inbounds i8, ptr %101, i64 2
  %103 = icmp ugt ptr %102, getelementptr inbounds nuw (i8, ptr @obuf, i64 8192)
  br i1 %103, label %104, label %107

104:                                              ; preds = %100
  %105 = load ptr, ptr @stderr, align 8, !tbaa !24
  %106 = call i32 (ptr, ptr, ...) @fprintf(ptr noundef %105, ptr noundef @.str.40) #9
  call void @exit(i32 noundef 1) #11
  unreachable

107:                                              ; preds = %100
  %108 = load ptr, ptr @optr, align 8, !tbaa !22
  %109 = getelementptr inbounds nuw i8, ptr %108, i32 1
  store ptr %109, ptr @optr, align 8, !tbaa !22
  store i8 -4, ptr %108, align 1, !tbaa !23
  %110 = load ptr, ptr %5, align 8, !tbaa !22
  %111 = getelementptr inbounds i8, ptr %110, i64 4
  %112 = call i32 @atoi(ptr noundef %111) #12
  %113 = trunc i32 %112 to i8
  %114 = load ptr, ptr @optr, align 8, !tbaa !22
  %115 = getelementptr inbounds nuw i8, ptr %114, i32 1
  store ptr %115, ptr @optr, align 8, !tbaa !22
  store i8 %113, ptr %114, align 1, !tbaa !23
  store i32 1, ptr %8, align 4
  br label %123

116:                                              ; preds = %96, %93
  br label %117

117:                                              ; preds = %116
  br label %118

118:                                              ; preds = %117, %78
  br label %119

119:                                              ; preds = %118, %43
  %120 = load ptr, ptr @stderr, align 8, !tbaa !24
  %121 = load ptr, ptr %5, align 8, !tbaa !22
  %122 = call i32 (ptr, ptr, ...) @fprintf(ptr noundef %120, ptr noundef @.str.68, ptr noundef @.str.9, ptr noundef %121) #9
  call void @exit(i32 noundef 1) #11
  unreachable

123:                                              ; preds = %107, %90, %76, %35
  call void @llvm.lifetime.end.p0(i64 4, ptr %7) #9
  br label %124

124:                                              ; preds = %123, %3
  ret void
}