; Function Attrs: nofree nounwind uwtable
define internal void @libdef_push(ptr noundef readonly captures(none) %0, ptr noundef %1, i32 %2) #7 {
  %4 = alloca ptr, align 8
  %5 = getelementptr inbounds nuw i8, ptr %0, i64 8
  %6 = load i32, ptr %5, align 8, !tbaa !4
  %7 = icmp eq i32 %6, 7
  br i1 %7, label %8, label %85

8:                                                ; preds = %3
  %9 = tail call i64 @strlen(ptr noundef nonnull dereferenceable(1) %1) #18
  %10 = trunc i64 %9 to i32
  %11 = load i8, ptr %1, align 1, !tbaa !21
  %12 = icmp eq i8 %11, 34
  br i1 %12, label %13, label %39

13:                                               ; preds = %8
  %14 = icmp sgt i32 %10, 1
  br i1 %14, label %15, label %82

15:                                               ; preds = %13
  %16 = add i64 %9, 4294967295
  %17 = and i64 %16, 4294967295
  %18 = getelementptr inbounds nuw i8, ptr %1, i64 %17
  %19 = load i8, ptr %18, align 1, !tbaa !21
  %20 = icmp eq i8 %19, 34
  br i1 %20, label %21, label %82

21:                                               ; preds = %15
  store i8 0, ptr %18, align 1, !tbaa !21
  %22 = getelementptr inbounds nuw i8, ptr %1, i64 1
  %23 = tail call i64 @strlen(ptr noundef nonnull dereferenceable(1) %22) #18
  %24 = icmp ugt i64 %23, 56
  br i1 %24, label %25, label %28

25:                                               ; preds = %21
  %26 = load ptr, ptr @stderr, align 8, !tbaa !22
  %27 = tail call i32 (ptr, ptr, ...) @fprintf(ptr noundef %26, ptr noundef nonnull @.str.50, ptr noundef nonnull %22) #16
  tail call void @exit(i32 noundef 1) #17
  unreachable

28:                                               ; preds = %21
  %29 = load ptr, ptr @optr, align 8, !tbaa !20
  %30 = getelementptr inbounds nuw i8, ptr %29, i64 1
  %31 = getelementptr inbounds nuw i8, ptr %30, i64 %23
  %32 = getelementptr inbounds nuw i8, ptr %31, i64 2
  %33 = icmp ugt ptr %32, getelementptr inbounds nuw (i8, ptr @obuf, i64 8192)
  br i1 %33, label %34, label %libdef_name.exit

34:                                               ; preds = %28
  %35 = load ptr, ptr @stderr, align 8, !tbaa !22
  %36 = tail call i64 @fwrite(ptr nonnull @.str.40, i64 30, i64 1, ptr %35) #19
  tail call void @exit(i32 noundef 1) #17
  unreachable

libdef_name.exit:                                 ; preds = %28
  %37 = trunc nuw i64 %23 to i8
  %38 = or disjoint i8 %37, -64
  store i8 %38, ptr %29, align 1, !tbaa !21
  tail call void @llvm.memcpy.p0.p0.i64(ptr nonnull align 1 %30, ptr nonnull align 1 %22, i64 %23, i1 false)
  store ptr %31, ptr @optr, align 8, !tbaa !20
  br label %85

39:                                               ; preds = %8
  %40 = add i8 %11, -48
  %or.cond = icmp ult i8 %40, 10
  br i1 %or.cond, label %41, label %54

41:                                               ; preds = %39
  call void @llvm.lifetime.start.p0(i64 8, ptr nonnull %4) #14
  %42 = call double @strtod(ptr noundef nonnull %1, ptr noundef nonnull %4) #14
  %43 = load ptr, ptr %4, align 8, !tbaa !20
  %44 = load i8, ptr %43, align 1, !tbaa !21
  %.not21 = icmp eq i8 %44, 0
  br i1 %.not21, label %45, label %.critedge

45:                                               ; preds = %41
  %46 = load ptr, ptr @optr, align 8, !tbaa !20
  %47 = getelementptr inbounds nuw i8, ptr %46, i64 9
  %48 = icmp ugt ptr %47, getelementptr inbounds nuw (i8, ptr @obuf, i64 8192)
  br i1 %48, label %49, label %52

49:                                               ; preds = %45
  %50 = load ptr, ptr @stderr, align 8, !tbaa !22
  %51 = tail call i64 @fwrite(ptr nonnull @.str.40, i64 30, i64 1, ptr %50) #19
  tail call void @exit(i32 noundef 1) #17
  unreachable

52:                                               ; preds = %45
  %53 = getelementptr inbounds nuw i8, ptr %46, i64 1
  store i8 -5, ptr %46, align 1, !tbaa !21
  store double %42, ptr %53, align 1
  store ptr %47, ptr @optr, align 8, !tbaa !20
  call void @llvm.lifetime.end.p0(i64 8, ptr nonnull %4) #14
  br label %85

54:                                               ; preds = %39
  %55 = tail call i32 @strcmp(ptr noundef nonnull dereferenceable(1) %1, ptr noundef nonnull dereferenceable(7) @.str.66) #18
  %.not = icmp eq i32 %55, 0
  br i1 %.not, label %56, label %64

56:                                               ; preds = %54
  %57 = load ptr, ptr @optr, align 8, !tbaa !20
  %58 = getelementptr inbounds nuw i8, ptr %57, i64 1
  %59 = icmp ugt ptr %58, getelementptr inbounds nuw (i8, ptr @obuf, i64 8192)
  br i1 %59, label %60, label %63

60:                                               ; preds = %56
  %61 = load ptr, ptr @stderr, align 8, !tbaa !22
  %62 = tail call i64 @fwrite(ptr nonnull @.str.40, i64 30, i64 1, ptr %61) #19
  tail call void @exit(i32 noundef 1) #17
  unreachable

63:                                               ; preds = %56
  store ptr %58, ptr @optr, align 8, !tbaa !20
  store i8 -3, ptr %57, align 1, !tbaa !21
  br label %85

64:                                               ; preds = %54
  %65 = icmp sgt i32 %10, 4
  br i1 %65, label %66, label %82

66:                                               ; preds = %64
  %67 = tail call i32 @strncmp(ptr noundef nonnull dereferenceable(1) %1, ptr noundef nonnull dereferenceable(5) @.str.67, i64 noundef 4) #18
  %.not20 = icmp eq i32 %67, 0
  br i1 %.not20, label %68, label %82

68:                                               ; preds = %66
  %69 = load ptr, ptr @optr, align 8, !tbaa !20
  %70 = getelementptr inbounds nuw i8, ptr %69, i64 2
  %71 = icmp ugt ptr %70, getelementptr inbounds nuw (i8, ptr @obuf, i64 8192)
  br i1 %71, label %72, label %75

72:                                               ; preds = %68
  %73 = load ptr, ptr @stderr, align 8, !tbaa !22
  %74 = tail call i64 @fwrite(ptr nonnull @.str.40, i64 30, i64 1, ptr %73) #19
  tail call void @exit(i32 noundef 1) #17
  unreachable

75:                                               ; preds = %68
  %76 = getelementptr inbounds nuw i8, ptr %69, i64 1
  store ptr %76, ptr @optr, align 8, !tbaa !20
  store i8 -4, ptr %69, align 1, !tbaa !21
  %77 = getelementptr inbounds nuw i8, ptr %1, i64 4
  %78 = tail call i64 @strtol(ptr noundef nonnull captures(none) %77, ptr noundef null, i32 noundef 10) #14
  %79 = trunc i64 %78 to i8
  %80 = load ptr, ptr @optr, align 8, !tbaa !20
  %81 = getelementptr inbounds nuw i8, ptr %80, i64 1
  store ptr %81, ptr @optr, align 8, !tbaa !20
  store i8 %79, ptr %80, align 1, !tbaa !21
  br label %85

.critedge:                                        ; preds = %41
  call void @llvm.lifetime.end.p0(i64 8, ptr nonnull %4) #14
  br label %82

82:                                               ; preds = %.critedge, %64, %66, %13, %15
  %83 = load ptr, ptr @stderr, align 8, !tbaa !22
  %84 = tail call i32 (ptr, ptr, ...) @fprintf(ptr noundef %83, ptr noundef nonnull @.str.68, ptr noundef nonnull @.str.9, ptr noundef nonnull %1) #16
  tail call void @exit(i32 noundef 1) #17
  unreachable

85:                                               ; preds = %52, %libdef_name.exit, %63, %75, %3
  ret void
}